target datalayout = "e-m:e-p270:32:32-p271:32:32-p272:64:64-i64:64-i128:128-f80:128-n8:16:32:64-S128"
target triple = "x86_64-pc-linux-gnu"

%struct.MOVAtom = type { i32, i64 }
%struct.MOVContext = type { ptr, ptr, i32, i64, i32, i32, i32, i32, i32, i32, ptr, i32, ptr, ptr, i32, %struct.MOVFragment, ptr, i32, i32, i32, ptr, i32, i32, i32, i32, i32, i32, i32, i64, i32, i32, ptr, i32, i32, i32, i32, i32, %struct.MOVFragmentIndex, i32, i32, [20 x i8], [20 x i8], ptr, i32, ptr, i32, ptr, i32, ptr, i32, ptr, ptr, i32, i32, [3 x [3 x i32]], i32, i32, i32, i32, i32, ptr, i32, ptr, i32, i32, i64, i32 }
%struct.MOVFragment = type { i32, i32, i64, i64, i64, i32, i32, i32, i32 }
%struct.MOVFragmentIndex = type { i32, i32, i32, i32, ptr }
%struct.HEIFItem = type { ptr, ptr, i32, i64, i64, i32, i32, i32, i32, i32, i32, i32, ptr, i64 }

@.str.356 = private unnamed_addr constant [28 x i8] c"irot: item_id %d, angle %u\0A\00", align 1

; Function Attrs: nounwind uwtable
define internal ptr @heif_cur_item(ptr noundef %0) #0 {
  %2 = alloca ptr, align 8
  %3 = alloca ptr, align 8
  %4 = alloca i32, align 4
  %5 = alloca i32, align 4
  store ptr %0, ptr %2, align 8, !tbaa !4
  call void @llvm.lifetime.start.p0(i64 8, ptr %3) #14
  store ptr null, ptr %3, align 8, !tbaa !257
  call void @llvm.lifetime.start.p0(i64 4, ptr %4) #14
  store i32 0, ptr %4, align 4, !tbaa !11
  br label %6

6:                                                ; preds = %45, %1
  %7 = load i32, ptr %4, align 4, !tbaa !11
  %8 = load ptr, ptr %2, align 8, !tbaa !4
  %9 = getelementptr inbounds nuw %struct.MOVContext, ptr %8, i32 0, i32 61
  %10 = load i32, ptr %9, align 8, !tbaa !255
  %11 = icmp slt i32 %7, %10
  br i1 %11, label %13, label %12

12:                                               ; preds = %6
  store i32 2, ptr %5, align 4
  br label %48

13:                                               ; preds = %6
  %14 = load ptr, ptr %2, align 8, !tbaa !4
  %15 = getelementptr inbounds nuw %struct.MOVContext, ptr %14, i32 0, i32 60
  %16 = load ptr, ptr %15, align 8, !tbaa !256
  %17 = load i32, ptr %4, align 4, !tbaa !11
  %18 = sext i32 %17 to i64
  %19 = getelementptr inbounds ptr, ptr %16, i64 %18
  %20 = load ptr, ptr %19, align 8, !tbaa !257
  %21 = icmp ne ptr %20, null
  br i1 %21, label %22, label %36

22:                                               ; preds = %13
  %23 = load ptr, ptr %2, align 8, !tbaa !4
  %24 = getelementptr inbounds nuw %struct.MOVContext, ptr %23, i32 0, i32 60
  %25 = load ptr, ptr %24, align 8, !tbaa !256
  %26 = load i32, ptr %4, align 4, !tbaa !11
  %27 = sext i32 %26 to i64
  %28 = getelementptr inbounds ptr, ptr %25, i64 %27
  %29 = load ptr, ptr %28, align 8, !tbaa !257
  %30 = getelementptr inbounds nuw %struct.HEIFItem, ptr %29, i32 0, i32 2
  %31 = load i32, ptr %30, align 8, !tbaa !273
  %32 = load ptr, ptr %2, align 8, !tbaa !4
  %33 = getelementptr inbounds nuw %struct.MOVContext, ptr %32, i32 0, i32 59
  %34 = load i32, ptr %33, align 4, !tbaa !165
  %35 = icmp ne i32 %31, %34
  br i1 %35, label %36, label %37

36:                                               ; preds = %22, %13
  br label %45

37:                                               ; preds = %22
  %38 = load ptr, ptr %2, align 8, !tbaa !4
  %39 = getelementptr inbounds nuw %struct.MOVContext, ptr %38, i32 0, i32 60
  %40 = load ptr, ptr %39, align 8, !tbaa !256
  %41 = load i32, ptr %4, align 4, !tbaa !11
  %42 = sext i32 %41 to i64
  %43 = getelementptr inbounds ptr, ptr %40, i64 %42
  %44 = load ptr, ptr %43, align 8, !tbaa !257
  store ptr %44, ptr %3, align 8, !tbaa !257
  store i32 2, ptr %5, align 4
  br label %48

45:                                               ; preds = %36
  %46 = load i32, ptr %4, align 4, !tbaa !11
  %47 = add nsw i32 %46, 1
  store i32 %47, ptr %4, align 4, !tbaa !11
  br label %6, !llvm.loop !274

48:                                               ; preds = %37, %12
  call void @llvm.lifetime.end.p0(i64 4, ptr %4) #14
  br label %49

49:                                               ; preds = %48
  %50 = load ptr, ptr %3, align 8, !tbaa !257
  store i32 1, ptr %5, align 4
  call void @llvm.lifetime.end.p0(i64 8, ptr %3) #14
  ret ptr %50
}

; Function Attrs: nounwind uwtable
define internal i32 @mov_read_irot(ptr noundef %0, ptr noundef %1, i32 %2, i64 %3) #0 {
  %5 = alloca %struct.MOVAtom, align 8
  %6 = alloca ptr, align 8
  %7 = alloca ptr, align 8
  %8 = alloca ptr, align 8
  %9 = alloca i32, align 4
  %10 = getelementptr inbounds nuw { i32, i64 }, ptr %5, i32 0, i32 0
  store i32 %2, ptr %10, align 8
  %11 = getelementptr inbounds nuw { i32, i64 }, ptr %5, i32 0, i32 1
  store i64 %3, ptr %11, align 8
  store ptr %0, ptr %6, align 8, !tbaa !4
  store ptr %1, ptr %7, align 8, !tbaa !9
  call void @llvm.lifetime.start.p0(i64 8, ptr %8) #14
  call void @llvm.lifetime.start.p0(i64 4, ptr %9) #14
  %12 = load ptr, ptr %7, align 8, !tbaa !9
  %13 = call i32 @avio_r8(ptr noundef %12)
  %14 = and i32 %13, 3
  store i32 %14, ptr %9, align 4, !tbaa !11
  %15 = load ptr, ptr %6, align 8, !tbaa !4
  %16 = getelementptr inbounds nuw %struct.MOVContext, ptr %15, i32 0, i32 1
  %17 = load ptr, ptr %16, align 8, !tbaa !13
  %18 = load ptr, ptr %6, align 8, !tbaa !4
  %19 = getelementptr inbounds nuw %struct.MOVContext, ptr %18, i32 0, i32 59
  %20 = load i32, ptr %19, align 4, !tbaa !165
  %21 = load i32, ptr %9, align 4, !tbaa !11
  call void (ptr, i32, ptr, ...) @av_log(ptr noundef %17, i32 noundef 56, ptr noundef @.str.356, i32 noundef %20, i32 noundef %21)
  %22 = load ptr, ptr %6, align 8, !tbaa !4
  %23 = call ptr @heif_cur_item(ptr noundef %22)
  store ptr %23, ptr %8, align 8, !tbaa !257
  %24 = load ptr, ptr %8, align 8, !tbaa !257
  %25 = icmp ne ptr %24, null
  br i1 %25, label %26, label %31

26:                                               ; preds = %4
  %27 = load i32, ptr %9, align 4, !tbaa !11
  %28 = mul nsw i32 %27, 90
  %29 = load ptr, ptr %8, align 8, !tbaa !257
  %30 = getelementptr inbounds nuw %struct.HEIFItem, ptr %29, i32 0, i32 7
  store i32 %28, ptr %30, align 8, !tbaa !578
  br label %31

31:                                               ; preds = %26, %4
  call void @llvm.lifetime.end.p0(i64 4, ptr %9) #14
  call void @llvm.lifetime.end.p0(i64 8, ptr %8) #14
  ret i32 0
}