; Function Attrs: nounwind uwtable
define internal noundef i32 @mov_read_irot(ptr noundef readonly captures(none) %0, ptr noundef %1, i32 %2, i64 %3) #0 {
  %5 = tail call i32 @avio_r8(ptr noundef %1) #16
  %6 = and i32 %5, 3
  %7 = getelementptr inbounds nuw i8, ptr %0, i64 8
  %8 = load ptr, ptr %7, align 8, !tbaa !4
  %9 = getelementptr inbounds nuw i8, ptr %0, i64 468
  %10 = load i32, ptr %9, align 4, !tbaa !150
  tail call void (ptr, i32, ptr, ...) @av_log(ptr noundef %8, i32 noundef 56, ptr noundef nonnull @.str.356, i32 noundef %10, i32 noundef %6) #16
  %11 = getelementptr inbounds nuw i8, ptr %0, i64 480
  %12 = load i32, ptr %11, align 8, !tbaa !154
  %13 = icmp sgt i32 %12, 0
  br i1 %13, label %.lr.ph.i, label %heif_cur_item.exit.thread

.lr.ph.i:                                         ; preds = %4
  %14 = getelementptr inbounds nuw i8, ptr %0, i64 472
  %15 = load ptr, ptr %14, align 8, !tbaa !155
  %wide.trip.count.i = zext nneg i32 %12 to i64
  br label %16

16:                                               ; preds = %23, %.lr.ph.i
  %indvars.iv.i = phi i64 [ 0, %.lr.ph.i ], [ %indvars.iv.next.i, %23 ]
  %17 = getelementptr inbounds nuw ptr, ptr %15, i64 %indvars.iv.i
  %18 = load ptr, ptr %17, align 8, !tbaa !156
  %.not.i = icmp eq ptr %18, null
  br i1 %.not.i, label %23, label %19

19:                                               ; preds = %16
  %20 = getelementptr inbounds nuw i8, ptr %18, i64 16
  %21 = load i32, ptr %20, align 8, !tbaa !160
  %22 = load i32, ptr %9, align 4, !tbaa !150
  %.not12.i = icmp eq i32 %21, %22
  br i1 %.not12.i, label %heif_cur_item.exit, label %23

23:                                               ; preds = %19, %16
  %indvars.iv.next.i = add nuw nsw i64 %indvars.iv.i, 1
  %exitcond.not.i = icmp eq i64 %indvars.iv.next.i, %wide.trip.count.i
  br i1 %exitcond.not.i, label %heif_cur_item.exit.thread, label %16, !llvm.loop !389

heif_cur_item.exit:                               ; preds = %19
  %24 = mul nuw nsw i32 %6, 90
  %25 = getelementptr inbounds nuw i8, ptr %18, i64 48
  store i32 %24, ptr %25, align 8, !tbaa !178
  br label %heif_cur_item.exit.thread

heif_cur_item.exit.thread:                        ; preds = %23, %4, %heif_cur_item.exit
  ret i32 0
}